
./no_logic:     file format elf64-x86-64


Disassembly of section .init:

00000000000006c8 <_init>:
 6c8:	48 83 ec 08          	sub    $0x8,%rsp
 6cc:	48 8b 05 15 19 20 00 	mov    0x201915(%rip),%rax        # 201fe8 <__gmon_start__>
 6d3:	48 85 c0             	test   %rax,%rax
 6d6:	74 02                	je     6da <_init+0x12>
 6d8:	ff d0                	callq  *%rax
 6da:	48 83 c4 08          	add    $0x8,%rsp
 6de:	c3                   	retq   

Disassembly of section .plt:

00000000000006e0 <.plt>:
 6e0:	ff 35 9a 18 20 00    	pushq  0x20189a(%rip)        # 201f80 <_GLOBAL_OFFSET_TABLE_+0x8>
 6e6:	ff 25 9c 18 20 00    	jmpq   *0x20189c(%rip)        # 201f88 <_GLOBAL_OFFSET_TABLE_+0x10>
 6ec:	0f 1f 40 00          	nopl   0x0(%rax)

00000000000006f0 <puts@plt>:
 6f0:	ff 25 9a 18 20 00    	jmpq   *0x20189a(%rip)        # 201f90 <puts@GLIBC_2.2.5>
 6f6:	68 00 00 00 00       	pushq  $0x0
 6fb:	e9 e0 ff ff ff       	jmpq   6e0 <.plt>

0000000000000700 <strlen@plt>:
 700:	ff 25 92 18 20 00    	jmpq   *0x201892(%rip)        # 201f98 <strlen@GLIBC_2.2.5>
 706:	68 01 00 00 00       	pushq  $0x1
 70b:	e9 d0 ff ff ff       	jmpq   6e0 <.plt>

0000000000000710 <__stack_chk_fail@plt>:
 710:	ff 25 8a 18 20 00    	jmpq   *0x20188a(%rip)        # 201fa0 <__stack_chk_fail@GLIBC_2.4>
 716:	68 02 00 00 00       	pushq  $0x2
 71b:	e9 c0 ff ff ff       	jmpq   6e0 <.plt>

0000000000000720 <printf@plt>:
 720:	ff 25 82 18 20 00    	jmpq   *0x201882(%rip)        # 201fa8 <printf@GLIBC_2.2.5>
 726:	68 03 00 00 00       	pushq  $0x3
 72b:	e9 b0 ff ff ff       	jmpq   6e0 <.plt>

0000000000000730 <srand@plt>:
 730:	ff 25 7a 18 20 00    	jmpq   *0x20187a(%rip)        # 201fb0 <srand@GLIBC_2.2.5>
 736:	68 04 00 00 00       	pushq  $0x4
 73b:	e9 a0 ff ff ff       	jmpq   6e0 <.plt>

0000000000000740 <strcmp@plt>:
 740:	ff 25 72 18 20 00    	jmpq   *0x201872(%rip)        # 201fb8 <strcmp@GLIBC_2.2.5>
 746:	68 05 00 00 00       	pushq  $0x5
 74b:	e9 90 ff ff ff       	jmpq   6e0 <.plt>

0000000000000750 <time@plt>:
 750:	ff 25 6a 18 20 00    	jmpq   *0x20186a(%rip)        # 201fc0 <time@GLIBC_2.2.5>
 756:	68 06 00 00 00       	pushq  $0x6
 75b:	e9 80 ff ff ff       	jmpq   6e0 <.plt>

0000000000000760 <sprintf@plt>:
 760:	ff 25 62 18 20 00    	jmpq   *0x201862(%rip)        # 201fc8 <sprintf@GLIBC_2.2.5>
 766:	68 07 00 00 00       	pushq  $0x7
 76b:	e9 70 ff ff ff       	jmpq   6e0 <.plt>

0000000000000770 <rand@plt>:
 770:	ff 25 5a 18 20 00    	jmpq   *0x20185a(%rip)        # 201fd0 <rand@GLIBC_2.2.5>
 776:	68 08 00 00 00       	pushq  $0x8
 77b:	e9 60 ff ff ff       	jmpq   6e0 <.plt>

Disassembly of section .plt.got:

0000000000000780 <__cxa_finalize@plt>:
 780:	ff 25 72 18 20 00    	jmpq   *0x201872(%rip)        # 201ff8 <__cxa_finalize@GLIBC_2.2.5>
 786:	66 90                	xchg   %ax,%ax

Disassembly of section .text:

0000000000000790 <_start>:
     790:	31 ed                	xor    %ebp,%ebp
     792:	49 89 d1             	mov    %rdx,%r9
     795:	5e                   	pop    %rsi
     796:	48 89 e2             	mov    %rsp,%rdx
     799:	48 83 e4 f0          	and    $0xfffffffffffffff0,%rsp
     79d:	50                   	push   %rax
     79e:	54                   	push   %rsp
     79f:	4c 8d 05 ea 0c 00 00 	lea    0xcea(%rip),%r8        # 1490 <__libc_csu_fini>
     7a6:	48 8d 0d 73 0c 00 00 	lea    0xc73(%rip),%rcx        # 1420 <__libc_csu_init>
     7ad:	48 8d 3d ce 02 00 00 	lea    0x2ce(%rip),%rdi        # a82 <main>
     7b4:	ff 15 26 18 20 00    	callq  *0x201826(%rip)        # 201fe0 <__libc_start_main@GLIBC_2.2.5>
     7ba:	f4                   	hlt    
     7bb:	0f 1f 44 00 00       	nopl   0x0(%rax,%rax,1)

00000000000007c0 <deregister_tm_clones>:
     7c0:	48 8d 3d 49 18 20 00 	lea    0x201849(%rip),%rdi        # 202010 <__TMC_END__>
     7c7:	55                   	push   %rbp
     7c8:	48 8d 05 41 18 20 00 	lea    0x201841(%rip),%rax        # 202010 <__TMC_END__>
     7cf:	48 39 f8             	cmp    %rdi,%rax
     7d2:	48 89 e5             	mov    %rsp,%rbp
     7d5:	74 19                	je     7f0 <deregister_tm_clones+0x30>
     7d7:	48 8b 05 fa 17 20 00 	mov    0x2017fa(%rip),%rax        # 201fd8 <_ITM_deregisterTMCloneTable>
     7de:	48 85 c0             	test   %rax,%rax
     7e1:	74 0d                	je     7f0 <deregister_tm_clones+0x30>
     7e3:	5d                   	pop    %rbp
     7e4:	ff e0                	jmpq   *%rax
     7e6:	66 2e 0f 1f 84 00 00 	nopw   %cs:0x0(%rax,%rax,1)
     7ed:	00 00 00 
     7f0:	5d                   	pop    %rbp
     7f1:	c3                   	retq   
     7f2:	0f 1f 40 00          	nopl   0x0(%rax)
     7f6:	66 2e 0f 1f 84 00 00 	nopw   %cs:0x0(%rax,%rax,1)
     7fd:	00 00 00 

0000000000000800 <register_tm_clones>:
     800:	48 8d 3d 09 18 20 00 	lea    0x201809(%rip),%rdi        # 202010 <__TMC_END__>
     807:	48 8d 35 02 18 20 00 	lea    0x201802(%rip),%rsi        # 202010 <__TMC_END__>
     80e:	55                   	push   %rbp
     80f:	48 29 fe             	sub    %rdi,%rsi
     812:	48 89 e5             	mov    %rsp,%rbp
     815:	48 c1 fe 03          	sar    $0x3,%rsi
     819:	48 89 f0             	mov    %rsi,%rax
     81c:	48 c1 e8 3f          	shr    $0x3f,%rax
     820:	48 01 c6             	add    %rax,%rsi
     823:	48 d1 fe             	sar    %rsi
     826:	74 18                	je     840 <register_tm_clones+0x40>
     828:	48 8b 05 c1 17 20 00 	mov    0x2017c1(%rip),%rax        # 201ff0 <_ITM_registerTMCloneTable>
     82f:	48 85 c0             	test   %rax,%rax
     832:	74 0c                	je     840 <register_tm_clones+0x40>
     834:	5d                   	pop    %rbp
     835:	ff e0                	jmpq   *%rax
     837:	66 0f 1f 84 00 00 00 	nopw   0x0(%rax,%rax,1)
     83e:	00 00 
     840:	5d                   	pop    %rbp
     841:	c3                   	retq   
     842:	0f 1f 40 00          	nopl   0x0(%rax)
     846:	66 2e 0f 1f 84 00 00 	nopw   %cs:0x0(%rax,%rax,1)
     84d:	00 00 00 

0000000000000850 <__do_global_dtors_aux>:
     850:	80 3d b9 17 20 00 00 	cmpb   $0x0,0x2017b9(%rip)        # 202010 <__TMC_END__>
     857:	75 2f                	jne    888 <__do_global_dtors_aux+0x38>
     859:	48 83 3d 97 17 20 00 	cmpq   $0x0,0x201797(%rip)        # 201ff8 <__cxa_finalize@GLIBC_2.2.5>
     860:	00 
     861:	55                   	push   %rbp
     862:	48 89 e5             	mov    %rsp,%rbp
     865:	74 0c                	je     873 <__do_global_dtors_aux+0x23>
     867:	48 8b 3d 9a 17 20 00 	mov    0x20179a(%rip),%rdi        # 202008 <__dso_handle>
     86e:	e8 0d ff ff ff       	callq  780 <__cxa_finalize@plt>
     873:	e8 48 ff ff ff       	callq  7c0 <deregister_tm_clones>
     878:	c6 05 91 17 20 00 01 	movb   $0x1,0x201791(%rip)        # 202010 <__TMC_END__>
     87f:	5d                   	pop    %rbp
     880:	c3                   	retq   
     881:	0f 1f 80 00 00 00 00 	nopl   0x0(%rax)
     888:	f3 c3                	repz retq 
     88a:	66 0f 1f 44 00 00    	nopw   0x0(%rax,%rax,1)

0000000000000890 <frame_dummy>:
     890:	55                   	push   %rbp
     891:	48 89 e5             	mov    %rsp,%rbp
     894:	5d                   	pop    %rbp
     895:	e9 66 ff ff ff       	jmpq   800 <register_tm_clones>

000000000000089a <funct>:
     89a:	55                   	push   %rbp
     89b:	48 89 e5             	mov    %rsp,%rbp
     89e:	48 81 ec e0 00 00 00 	sub    $0xe0,%rsp
     8a5:	89 bd 2c ff ff ff    	mov    %edi,-0xd4(%rbp)
     8ab:	64 48 8b 04 25 28 00 	mov    %fs:0x28,%rax
     8b2:	00 00 
     8b4:	48 89 45 f8          	mov    %rax,-0x8(%rbp)
     8b8:	31 c0                	xor    %eax,%eax
     8ba:	c7 85 40 ff ff ff df 	movl   $0xffffffdf,-0xc0(%rbp)
     8c1:	ff ff ff 
     8c4:	c7 85 44 ff ff ff c5 	movl   $0xffffffc5,-0xbc(%rbp)
     8cb:	ff ff ff 
     8ce:	c7 85 48 ff ff ff de 	movl   $0xffffffde,-0xb8(%rbp)
     8d5:	ff ff ff 
     8d8:	c7 85 4c ff ff ff d9 	movl   $0xffffffd9,-0xb4(%rbp)
     8df:	ff ff ff 
     8e2:	c7 85 50 ff ff ff ce 	movl   $0xffffffce,-0xb0(%rbp)
     8e9:	ff ff ff 
     8ec:	c7 85 54 ff ff ff d4 	movl   $0xffffffd4,-0xac(%rbp)
     8f3:	ff ff ff 
     8f6:	c7 85 58 ff ff ff c9 	movl   $0xffffffc9,-0xa8(%rbp)
     8fd:	ff ff ff 
     900:	c7 85 5c ff ff ff de 	movl   $0xffffffde,-0xa4(%rbp)
     907:	ff ff ff 
     90a:	c7 85 60 ff ff ff e7 	movl   $0xffffffe7,-0xa0(%rbp)
     911:	ff ff ff 
     914:	c7 85 64 ff ff ff d1 	movl   $0xffffffd1,-0x9c(%rbp)
     91b:	ff ff ff 
     91e:	c7 85 68 ff ff ff c5 	movl   $0xffffffc5,-0x98(%rbp)
     925:	ff ff ff 
     928:	c7 85 6c ff ff ff c3 	movl   $0xffffffc3,-0x94(%rbp)
     92f:	ff ff ff 
     932:	c7 85 70 ff ff ff fe 	movl   $0xfffffffe,-0x90(%rbp)
     939:	ff ff ff 
     93c:	c7 85 74 ff ff ff f3 	movl   $0xfffffff3,-0x8c(%rbp)
     943:	ff ff ff 
     946:	c7 85 78 ff ff ff f2 	movl   $0xfffffff2,-0x88(%rbp)
     94d:	ff ff ff 
     950:	c7 85 7c ff ff ff f9 	movl   $0xfffffff9,-0x84(%rbp)
     957:	ff ff ff 
     95a:	c7 45 80 ef ff ff ff 	movl   $0xffffffef,-0x80(%rbp)
     961:	c7 45 84 c3 ff ff ff 	movl   $0xffffffc3,-0x7c(%rbp)
     968:	c7 45 88 f1 ff ff ff 	movl   $0xfffffff1,-0x78(%rbp)
     96f:	c7 45 8c fd ff ff ff 	movl   $0xfffffffd,-0x74(%rbp)
     976:	c7 45 90 e5 ff ff ff 	movl   $0xffffffe5,-0x70(%rbp)
     97d:	c7 45 94 c3 ff ff ff 	movl   $0xffffffc3,-0x6c(%rbp)
     984:	c7 45 98 fe ff ff ff 	movl   $0xfffffffe,-0x68(%rbp)
     98b:	c7 45 9c f9 ff ff ff 	movl   $0xfffffff9,-0x64(%rbp)
     992:	c7 45 a0 c3 ff ff ff 	movl   $0xffffffc3,-0x60(%rbp)
     999:	c7 45 a4 fe ff ff ff 	movl   $0xfffffffe,-0x5c(%rbp)
     9a0:	c7 45 a8 ee ff ff ff 	movl   $0xffffffee,-0x58(%rbp)
     9a7:	c7 45 ac f3 ff ff ff 	movl   $0xfffffff3,-0x54(%rbp)
     9ae:	c7 45 b0 f7 ff ff ff 	movl   $0xfffffff7,-0x50(%rbp)
     9b5:	c7 45 b4 f9 ff ff ff 	movl   $0xfffffff9,-0x4c(%rbp)
     9bc:	c7 45 b8 f2 ff ff ff 	movl   $0xfffffff2,-0x48(%rbp)
     9c3:	c7 45 bc c3 ff ff ff 	movl   $0xffffffc3,-0x44(%rbp)
     9ca:	c7 45 c0 fe ff ff ff 	movl   $0xfffffffe,-0x40(%rbp)
     9d1:	c7 45 c4 e9 ff ff ff 	movl   $0xffffffe9,-0x3c(%rbp)
     9d8:	c7 45 c8 e8 ff ff ff 	movl   $0xffffffe8,-0x38(%rbp)
     9df:	c7 45 cc c3 ff ff ff 	movl   $0xffffffc3,-0x34(%rbp)
     9e6:	c7 45 d0 f5 ff ff ff 	movl   $0xfffffff5,-0x30(%rbp)
     9ed:	c7 45 d4 f1 ff ff ff 	movl   $0xfffffff1,-0x2c(%rbp)
     9f4:	c7 45 d8 c3 ff ff ff 	movl   $0xffffffc3,-0x28(%rbp)
     9fb:	c7 45 dc f2 ff ff ff 	movl   $0xfffffff2,-0x24(%rbp)
     a02:	c7 45 e0 f3 ff ff ff 	movl   $0xfffffff3,-0x20(%rbp)
     a09:	c7 45 e4 e8 ff ff ff 	movl   $0xffffffe8,-0x1c(%rbp)
     a10:	c7 45 e8 e1 ff ff ff 	movl   $0xffffffe1,-0x18(%rbp)
     a17:	c7 85 34 ff ff ff 00 	movl   $0x0,-0xcc(%rbp)
     a1e:	00 00 00 
     a21:	eb 39                	jmp    a5c <funct+0x1c2>
     a23:	8b 85 34 ff ff ff    	mov    -0xcc(%rbp),%eax
     a29:	48 98                	cltq   
     a2b:	8b 84 85 40 ff ff ff 	mov    -0xc0(%rbp,%rax,4),%eax
     a32:	89 c6                	mov    %eax,%esi
     a34:	8b 85 2c ff ff ff    	mov    -0xd4(%rbp),%eax
     a3a:	89 c1                	mov    %eax,%ecx
     a3c:	8b 85 34 ff ff ff    	mov    -0xcc(%rbp),%eax
     a42:	48 63 d0             	movslq %eax,%rdx
     a45:	48 8b 85 38 ff ff ff 	mov    -0xc8(%rbp),%rax
     a4c:	48 01 d0             	add    %rdx,%rax
     a4f:	31 ce                	xor    %ecx,%esi
     a51:	89 f2                	mov    %esi,%edx
     a53:	88 10                	mov    %dl,(%rax)
     a55:	83 85 34 ff ff ff 01 	addl   $0x1,-0xcc(%rbp)
     a5c:	83 bd 34 ff ff ff 2a 	cmpl   $0x2a,-0xcc(%rbp)
     a63:	7e be                	jle    a23 <funct+0x189>
     a65:	48 8b 85 38 ff ff ff 	mov    -0xc8(%rbp),%rax
     a6c:	48 8b 7d f8          	mov    -0x8(%rbp),%rdi
     a70:	64 48 33 3c 25 28 00 	xor    %fs:0x28,%rdi
     a77:	00 00 
     a79:	74 05                	je     a80 <funct+0x1e6>
     a7b:	e8 90 fc ff ff       	callq  710 <__stack_chk_fail@plt>
     a80:	c9                   	leaveq 
     a81:	c3                   	retq   

0000000000000a82 <main>:
     a82:	55                   	push   %rbp
     a83:	48 89 e5             	mov    %rsp,%rbp
     a86:	41 57                	push   %r15
     a88:	41 56                	push   %r14
     a8a:	41 55                	push   %r13
     a8c:	41 54                	push   %r12
     a8e:	53                   	push   %rbx
     a8f:	48 83 ec 78          	sub    $0x78,%rsp
     a93:	89 bd 6c ff ff ff    	mov    %edi,-0x94(%rbp)
     a99:	48 89 b5 60 ff ff ff 	mov    %rsi,-0xa0(%rbp)
     aa0:	64 48 8b 04 25 28 00 	mov    %fs:0x28,%rax
     aa7:	00 00 
     aa9:	48 89 45 c8          	mov    %rax,-0x38(%rbp)
     aad:	31 c0                	xor    %eax,%eax
     aaf:	48 89 e0             	mov    %rsp,%rax
     ab2:	48 89 c3             	mov    %rax,%rbx
     ab5:	bf 00 00 00 00       	mov    $0x0,%edi
     aba:	e8 91 fc ff ff       	callq  750 <time@plt>
     abf:	89 c7                	mov    %eax,%edi
     ac1:	e8 6a fc ff ff       	callq  730 <srand@plt>
     ac6:	e8 a5 fc ff ff       	callq  770 <rand@plt>
     acb:	89 c1                	mov    %eax,%ecx
     acd:	48 63 c1             	movslq %ecx,%rax
     ad0:	48 69 c0 81 80 80 80 	imul   $0xffffffff80808081,%rax,%rax
     ad7:	48 c1 e8 20          	shr    $0x20,%rax
     adb:	01 c8                	add    %ecx,%eax
     add:	c1 f8 07             	sar    $0x7,%eax
     ae0:	89 c2                	mov    %eax,%edx
     ae2:	89 c8                	mov    %ecx,%eax
     ae4:	c1 f8 1f             	sar    $0x1f,%eax
     ae7:	29 c2                	sub    %eax,%edx
     ae9:	89 d0                	mov    %edx,%eax
     aeb:	89 c2                	mov    %eax,%edx
     aed:	c1 e2 08             	shl    $0x8,%edx
     af0:	29 c2                	sub    %eax,%edx
     af2:	89 c8                	mov    %ecx,%eax
     af4:	29 d0                	sub    %edx,%eax
     af6:	48 98                	cltq   
     af8:	48 89 45 90          	mov    %rax,-0x70(%rbp)
     afc:	48 c7 45 88 00 00 00 	movq   $0x0,-0x78(%rbp)
     b03:	00 
     b04:	48 c7 45 98 00 00 00 	movq   $0x0,-0x68(%rbp)
     b0b:	00 
     b0c:	c7 85 7c ff ff ff 00 	movl   $0x0,-0x84(%rbp)
     b13:	00 00 00 
     b16:	48 8b 45 90          	mov    -0x70(%rbp),%rax
     b1a:	48 8d 50 ff          	lea    -0x1(%rax),%rdx
     b1e:	48 89 55 a0          	mov    %rdx,-0x60(%rbp)
     b22:	48 89 c2             	mov    %rax,%rdx
     b25:	49 89 d6             	mov    %rdx,%r14
     b28:	41 bf 00 00 00 00    	mov    $0x0,%r15d
     b2e:	48 89 c2             	mov    %rax,%rdx
     b31:	49 89 d4             	mov    %rdx,%r12
     b34:	41 bd 00 00 00 00    	mov    $0x0,%r13d
     b3a:	48 89 c2             	mov    %rax,%rdx
     b3d:	b8 10 00 00 00       	mov    $0x10,%eax
     b42:	48 83 e8 01          	sub    $0x1,%rax
     b46:	48 01 d0             	add    %rdx,%rax
     b49:	be 10 00 00 00       	mov    $0x10,%esi
     b4e:	ba 00 00 00 00       	mov    $0x0,%edx
     b53:	48 f7 f6             	div    %rsi
     b56:	48 6b c0 10          	imul   $0x10,%rax,%rax
     b5a:	48 29 c4             	sub    %rax,%rsp
     b5d:	48 89 e0             	mov    %rsp,%rax
     b60:	48 83 c0 00          	add    $0x0,%rax
     b64:	48 89 45 a8          	mov    %rax,-0x58(%rbp)
     b68:	c7 85 78 ff ff ff 00 	movl   $0x0,-0x88(%rbp)
     b6f:	00 00 00 
     b72:	eb 5a                	jmp    bce <main+0x14c>
     b74:	e8 f7 fb ff ff       	callq  770 <rand@plt>
     b79:	89 c1                	mov    %eax,%ecx
     b7b:	48 63 c1             	movslq %ecx,%rax
     b7e:	48 69 c0 81 80 80 80 	imul   $0xffffffff80808081,%rax,%rax
     b85:	48 c1 e8 20          	shr    $0x20,%rax
     b89:	01 c8                	add    %ecx,%eax
     b8b:	c1 f8 07             	sar    $0x7,%eax
     b8e:	89 c2                	mov    %eax,%edx
     b90:	89 c8                	mov    %ecx,%eax
     b92:	c1 f8 1f             	sar    $0x1f,%eax
     b95:	29 c2                	sub    %eax,%edx
     b97:	89 d0                	mov    %edx,%eax
     b99:	89 c2                	mov    %eax,%edx
     b9b:	c1 e2 08             	shl    $0x8,%edx
     b9e:	29 c2                	sub    %eax,%edx
     ba0:	89 c8                	mov    %ecx,%eax
     ba2:	29 d0                	sub    %edx,%eax
     ba4:	48 98                	cltq   
     ba6:	48 89 45 98          	mov    %rax,-0x68(%rbp)
     baa:	48 8b 45 98          	mov    -0x68(%rbp),%rax
     bae:	89 c1                	mov    %eax,%ecx
     bb0:	48 8b 55 a8          	mov    -0x58(%rbp),%rdx
     bb4:	8b 85 78 ff ff ff    	mov    -0x88(%rbp),%eax
     bba:	48 98                	cltq   
     bbc:	88 0c 02             	mov    %cl,(%rdx,%rax,1)
     bbf:	48 8b 45 98          	mov    -0x68(%rbp),%rax
     bc3:	48 01 45 88          	add    %rax,-0x78(%rbp)
     bc7:	83 85 78 ff ff ff 01 	addl   $0x1,-0x88(%rbp)
     bce:	8b 85 78 ff ff ff    	mov    -0x88(%rbp),%eax
     bd4:	48 98                	cltq   
     bd6:	48 39 45 90          	cmp    %rax,-0x70(%rbp)
     bda:	7f 98                	jg     b74 <main+0xf2>
     bdc:	48 8b 55 88          	mov    -0x78(%rbp),%rdx
     be0:	48 8d 45 be          	lea    -0x42(%rbp),%rax
     be4:	48 8d 35 bd 08 00 00 	lea    0x8bd(%rip),%rsi        # 14a8 <_IO_stdin_used+0x8>
     beb:	48 89 c7             	mov    %rax,%rdi
     bee:	b8 00 00 00 00       	mov    $0x0,%eax
     bf3:	e8 68 fb ff ff       	callq  760 <sprintf@plt>
     bf8:	c7 45 80 00 00 00 00 	movl   $0x0,-0x80(%rbp)
     bff:	c7 85 74 ff ff ff 00 	movl   $0x0,-0x8c(%rbp)
     c06:	00 00 00 
     c09:	83 bd 6c ff ff ff 01 	cmpl   $0x1,-0x94(%rbp)
     c10:	0f 8e d0 07 00 00    	jle    13e6 <main+0x964>
     c16:	48 8b 85 60 ff ff ff 	mov    -0xa0(%rbp),%rax
     c1d:	48 83 c0 08          	add    $0x8,%rax
     c21:	48 8b 00             	mov    (%rax),%rax
     c24:	48 89 c7             	mov    %rax,%rdi
     c27:	e8 d4 fa ff ff       	callq  700 <strlen@plt>
     c2c:	89 45 80             	mov    %eax,-0x80(%rbp)
     c2f:	c7 85 70 ff ff ff 00 	movl   $0x0,-0x90(%rbp)
     c36:	00 00 00 
     c39:	eb 2c                	jmp    c67 <main+0x1e5>
     c3b:	48 8b 85 60 ff ff ff 	mov    -0xa0(%rbp),%rax
     c42:	48 83 c0 08          	add    $0x8,%rax
     c46:	48 8b 10             	mov    (%rax),%rdx
     c49:	8b 85 70 ff ff ff    	mov    -0x90(%rbp),%eax
     c4f:	48 98                	cltq   
     c51:	48 01 d0             	add    %rdx,%rax
     c54:	0f b6 00             	movzbl (%rax),%eax
     c57:	0f be c0             	movsbl %al,%eax
     c5a:	01 85 74 ff ff ff    	add    %eax,-0x8c(%rbp)
     c60:	83 85 70 ff ff ff 01 	addl   $0x1,-0x90(%rbp)
     c67:	8b 85 70 ff ff ff    	mov    -0x90(%rbp),%eax
     c6d:	3b 45 80             	cmp    -0x80(%rbp),%eax
     c70:	7c c9                	jl     c3b <main+0x1b9>
     c72:	8b 95 74 ff ff ff    	mov    -0x8c(%rbp),%edx
     c78:	48 8d 45 c3          	lea    -0x3d(%rbp),%rax
     c7c:	48 8d 35 29 08 00 00 	lea    0x829(%rip),%rsi        # 14ac <_IO_stdin_used+0xc>
     c83:	48 89 c7             	mov    %rax,%rdi
     c86:	b8 00 00 00 00       	mov    $0x0,%eax
     c8b:	e8 d0 fa ff ff       	callq  760 <sprintf@plt>
     c90:	48 8d 55 be          	lea    -0x42(%rbp),%rdx
     c94:	48 8d 45 c3          	lea    -0x3d(%rbp),%rax
     c98:	48 89 d6             	mov    %rdx,%rsi
     c9b:	48 89 c7             	mov    %rax,%rdi
     c9e:	e8 9d fa ff ff       	callq  740 <strcmp@plt>
     ca3:	89 45 84             	mov    %eax,-0x7c(%rbp)
     ca6:	83 7d 84 00          	cmpl   $0x0,-0x7c(%rbp)
     caa:	0f 85 03 07 00 00    	jne    13b3 <main+0x931>
     cb0:	83 85 7c ff ff ff 01 	addl   $0x1,-0x84(%rbp)
     cb7:	83 7d 84 00          	cmpl   $0x0,-0x7c(%rbp)
     cbb:	0f 85 f2 06 00 00    	jne    13b3 <main+0x931>
     cc1:	83 85 7c ff ff ff 01 	addl   $0x1,-0x84(%rbp)
     cc8:	83 7d 84 00          	cmpl   $0x0,-0x7c(%rbp)
     ccc:	0f 85 e1 06 00 00    	jne    13b3 <main+0x931>
     cd2:	83 85 7c ff ff ff 01 	addl   $0x1,-0x84(%rbp)
     cd9:	83 7d 84 00          	cmpl   $0x0,-0x7c(%rbp)
     cdd:	0f 85 d0 06 00 00    	jne    13b3 <main+0x931>
     ce3:	83 85 7c ff ff ff 01 	addl   $0x1,-0x84(%rbp)
     cea:	83 7d 84 00          	cmpl   $0x0,-0x7c(%rbp)
     cee:	0f 85 bf 06 00 00    	jne    13b3 <main+0x931>
     cf4:	83 85 7c ff ff ff 01 	addl   $0x1,-0x84(%rbp)
     cfb:	83 7d 84 00          	cmpl   $0x0,-0x7c(%rbp)
     cff:	0f 85 ae 06 00 00    	jne    13b3 <main+0x931>
     d05:	83 85 7c ff ff ff 01 	addl   $0x1,-0x84(%rbp)
     d0c:	83 7d 84 00          	cmpl   $0x0,-0x7c(%rbp)
     d10:	0f 85 9d 06 00 00    	jne    13b3 <main+0x931>
     d16:	83 85 7c ff ff ff 01 	addl   $0x1,-0x84(%rbp)
     d1d:	83 7d 84 00          	cmpl   $0x0,-0x7c(%rbp)
     d21:	0f 85 8c 06 00 00    	jne    13b3 <main+0x931>
     d27:	83 85 7c ff ff ff 01 	addl   $0x1,-0x84(%rbp)
     d2e:	83 7d 84 00          	cmpl   $0x0,-0x7c(%rbp)
     d32:	0f 85 7b 06 00 00    	jne    13b3 <main+0x931>
     d38:	83 85 7c ff ff ff 01 	addl   $0x1,-0x84(%rbp)
     d3f:	83 7d 84 00          	cmpl   $0x0,-0x7c(%rbp)
     d43:	0f 85 6a 06 00 00    	jne    13b3 <main+0x931>
     d49:	83 85 7c ff ff ff 01 	addl   $0x1,-0x84(%rbp)
     d50:	83 7d 84 00          	cmpl   $0x0,-0x7c(%rbp)
     d54:	0f 85 59 06 00 00    	jne    13b3 <main+0x931>
     d5a:	83 85 7c ff ff ff 01 	addl   $0x1,-0x84(%rbp)
     d61:	83 7d 84 00          	cmpl   $0x0,-0x7c(%rbp)
     d65:	0f 85 48 06 00 00    	jne    13b3 <main+0x931>
     d6b:	83 85 7c ff ff ff 01 	addl   $0x1,-0x84(%rbp)
     d72:	83 7d 84 00          	cmpl   $0x0,-0x7c(%rbp)
     d76:	0f 85 37 06 00 00    	jne    13b3 <main+0x931>
     d7c:	83 85 7c ff ff ff 01 	addl   $0x1,-0x84(%rbp)
     d83:	83 7d 84 00          	cmpl   $0x0,-0x7c(%rbp)
     d87:	0f 85 26 06 00 00    	jne    13b3 <main+0x931>
     d8d:	83 85 7c ff ff ff 01 	addl   $0x1,-0x84(%rbp)
     d94:	83 7d 84 00          	cmpl   $0x0,-0x7c(%rbp)
     d98:	0f 85 15 06 00 00    	jne    13b3 <main+0x931>
     d9e:	83 85 7c ff ff ff 01 	addl   $0x1,-0x84(%rbp)
     da5:	83 7d 84 00          	cmpl   $0x0,-0x7c(%rbp)
     da9:	0f 85 04 06 00 00    	jne    13b3 <main+0x931>
     daf:	83 85 7c ff ff ff 01 	addl   $0x1,-0x84(%rbp)
     db6:	83 7d 84 00          	cmpl   $0x0,-0x7c(%rbp)
     dba:	0f 85 f3 05 00 00    	jne    13b3 <main+0x931>
     dc0:	83 85 7c ff ff ff 01 	addl   $0x1,-0x84(%rbp)
     dc7:	83 7d 84 00          	cmpl   $0x0,-0x7c(%rbp)
     dcb:	0f 85 e2 05 00 00    	jne    13b3 <main+0x931>
     dd1:	83 85 7c ff ff ff 01 	addl   $0x1,-0x84(%rbp)
     dd8:	83 7d 84 00          	cmpl   $0x0,-0x7c(%rbp)
     ddc:	0f 85 d1 05 00 00    	jne    13b3 <main+0x931>
     de2:	83 85 7c ff ff ff 01 	addl   $0x1,-0x84(%rbp)
     de9:	83 7d 84 00          	cmpl   $0x0,-0x7c(%rbp)
     ded:	0f 85 c0 05 00 00    	jne    13b3 <main+0x931>
     df3:	83 85 7c ff ff ff 01 	addl   $0x1,-0x84(%rbp)
     dfa:	83 7d 84 00          	cmpl   $0x0,-0x7c(%rbp)
     dfe:	0f 85 af 05 00 00    	jne    13b3 <main+0x931>
     e04:	83 85 7c ff ff ff 01 	addl   $0x1,-0x84(%rbp)
     e0b:	83 7d 84 00          	cmpl   $0x0,-0x7c(%rbp)
     e0f:	0f 85 9e 05 00 00    	jne    13b3 <main+0x931>
     e15:	83 85 7c ff ff ff 01 	addl   $0x1,-0x84(%rbp)
     e1c:	83 7d 84 00          	cmpl   $0x0,-0x7c(%rbp)
     e20:	0f 85 8d 05 00 00    	jne    13b3 <main+0x931>
     e26:	83 85 7c ff ff ff 01 	addl   $0x1,-0x84(%rbp)
     e2d:	83 7d 84 00          	cmpl   $0x0,-0x7c(%rbp)
     e31:	0f 85 7c 05 00 00    	jne    13b3 <main+0x931>
     e37:	83 85 7c ff ff ff 01 	addl   $0x1,-0x84(%rbp)
     e3e:	83 7d 84 00          	cmpl   $0x0,-0x7c(%rbp)
     e42:	0f 85 6b 05 00 00    	jne    13b3 <main+0x931>
     e48:	83 85 7c ff ff ff 01 	addl   $0x1,-0x84(%rbp)
     e4f:	83 7d 84 00          	cmpl   $0x0,-0x7c(%rbp)
     e53:	0f 85 5a 05 00 00    	jne    13b3 <main+0x931>
     e59:	83 85 7c ff ff ff 01 	addl   $0x1,-0x84(%rbp)
     e60:	83 7d 84 00          	cmpl   $0x0,-0x7c(%rbp)
     e64:	0f 85 49 05 00 00    	jne    13b3 <main+0x931>
     e6a:	83 85 7c ff ff ff 01 	addl   $0x1,-0x84(%rbp)
     e71:	83 7d 84 00          	cmpl   $0x0,-0x7c(%rbp)
     e75:	0f 85 38 05 00 00    	jne    13b3 <main+0x931>
     e7b:	83 85 7c ff ff ff 01 	addl   $0x1,-0x84(%rbp)
     e82:	83 7d 84 00          	cmpl   $0x0,-0x7c(%rbp)
     e86:	0f 85 27 05 00 00    	jne    13b3 <main+0x931>
     e8c:	83 85 7c ff ff ff 01 	addl   $0x1,-0x84(%rbp)
     e93:	83 7d 84 00          	cmpl   $0x0,-0x7c(%rbp)
     e97:	0f 85 16 05 00 00    	jne    13b3 <main+0x931>
     e9d:	83 85 7c ff ff ff 01 	addl   $0x1,-0x84(%rbp)
     ea4:	83 7d 84 00          	cmpl   $0x0,-0x7c(%rbp)
     ea8:	0f 85 05 05 00 00    	jne    13b3 <main+0x931>
     eae:	83 85 7c ff ff ff 01 	addl   $0x1,-0x84(%rbp)
     eb5:	83 7d 84 00          	cmpl   $0x0,-0x7c(%rbp)
     eb9:	0f 85 f4 04 00 00    	jne    13b3 <main+0x931>
     ebf:	83 85 7c ff ff ff 01 	addl   $0x1,-0x84(%rbp)
     ec6:	83 7d 84 00          	cmpl   $0x0,-0x7c(%rbp)
     eca:	0f 85 e3 04 00 00    	jne    13b3 <main+0x931>
     ed0:	83 85 7c ff ff ff 01 	addl   $0x1,-0x84(%rbp)
     ed7:	83 7d 84 00          	cmpl   $0x0,-0x7c(%rbp)
     edb:	0f 85 d2 04 00 00    	jne    13b3 <main+0x931>
     ee1:	83 85 7c ff ff ff 01 	addl   $0x1,-0x84(%rbp)
     ee8:	83 7d 84 00          	cmpl   $0x0,-0x7c(%rbp)
     eec:	0f 85 c1 04 00 00    	jne    13b3 <main+0x931>
     ef2:	83 85 7c ff ff ff 01 	addl   $0x1,-0x84(%rbp)
     ef9:	83 7d 84 00          	cmpl   $0x0,-0x7c(%rbp)
     efd:	0f 85 b0 04 00 00    	jne    13b3 <main+0x931>
     f03:	83 85 7c ff ff ff 01 	addl   $0x1,-0x84(%rbp)
     f0a:	83 7d 84 00          	cmpl   $0x0,-0x7c(%rbp)
     f0e:	0f 85 9f 04 00 00    	jne    13b3 <main+0x931>
     f14:	83 85 7c ff ff ff 01 	addl   $0x1,-0x84(%rbp)
     f1b:	83 7d 84 00          	cmpl   $0x0,-0x7c(%rbp)
     f1f:	0f 85 8e 04 00 00    	jne    13b3 <main+0x931>
     f25:	83 85 7c ff ff ff 01 	addl   $0x1,-0x84(%rbp)
     f2c:	83 7d 84 00          	cmpl   $0x0,-0x7c(%rbp)
     f30:	0f 84 7d 04 00 00    	je     13b3 <main+0x931>
     f36:	83 85 7c ff ff ff 01 	addl   $0x1,-0x84(%rbp)
     f3d:	83 7d 84 00          	cmpl   $0x0,-0x7c(%rbp)
     f41:	0f 84 6c 04 00 00    	je     13b3 <main+0x931>
     f47:	83 85 7c ff ff ff 01 	addl   $0x1,-0x84(%rbp)
     f4e:	83 7d 84 00          	cmpl   $0x0,-0x7c(%rbp)
     f52:	0f 84 5b 04 00 00    	je     13b3 <main+0x931>
     f58:	83 85 7c ff ff ff 01 	addl   $0x1,-0x84(%rbp)
     f5f:	83 7d 84 00          	cmpl   $0x0,-0x7c(%rbp)
     f63:	0f 84 4a 04 00 00    	je     13b3 <main+0x931>
     f69:	83 85 7c ff ff ff 01 	addl   $0x1,-0x84(%rbp)
     f70:	83 7d 84 00          	cmpl   $0x0,-0x7c(%rbp)
     f74:	0f 84 39 04 00 00    	je     13b3 <main+0x931>
     f7a:	83 85 7c ff ff ff 01 	addl   $0x1,-0x84(%rbp)
     f81:	83 7d 84 00          	cmpl   $0x0,-0x7c(%rbp)
     f85:	0f 84 28 04 00 00    	je     13b3 <main+0x931>
     f8b:	83 85 7c ff ff ff 01 	addl   $0x1,-0x84(%rbp)
     f92:	83 7d 84 00          	cmpl   $0x0,-0x7c(%rbp)
     f96:	0f 84 17 04 00 00    	je     13b3 <main+0x931>
     f9c:	83 85 7c ff ff ff 01 	addl   $0x1,-0x84(%rbp)
     fa3:	83 7d 84 00          	cmpl   $0x0,-0x7c(%rbp)
     fa7:	0f 84 06 04 00 00    	je     13b3 <main+0x931>
     fad:	83 85 7c ff ff ff 01 	addl   $0x1,-0x84(%rbp)
     fb4:	83 7d 84 00          	cmpl   $0x0,-0x7c(%rbp)
     fb8:	0f 84 f5 03 00 00    	je     13b3 <main+0x931>
     fbe:	83 85 7c ff ff ff 01 	addl   $0x1,-0x84(%rbp)
     fc5:	83 7d 84 00          	cmpl   $0x0,-0x7c(%rbp)
     fc9:	0f 84 e4 03 00 00    	je     13b3 <main+0x931>
     fcf:	83 85 7c ff ff ff 01 	addl   $0x1,-0x84(%rbp)
     fd6:	83 7d 84 00          	cmpl   $0x0,-0x7c(%rbp)
     fda:	0f 84 d3 03 00 00    	je     13b3 <main+0x931>
     fe0:	83 85 7c ff ff ff 01 	addl   $0x1,-0x84(%rbp)
     fe7:	83 7d 84 00          	cmpl   $0x0,-0x7c(%rbp)
     feb:	0f 84 c2 03 00 00    	je     13b3 <main+0x931>
     ff1:	83 85 7c ff ff ff 01 	addl   $0x1,-0x84(%rbp)
     ff8:	83 7d 84 00          	cmpl   $0x0,-0x7c(%rbp)
     ffc:	0f 84 b1 03 00 00    	je     13b3 <main+0x931>
    1002:	83 85 7c ff ff ff 01 	addl   $0x1,-0x84(%rbp)
    1009:	83 7d 84 00          	cmpl   $0x0,-0x7c(%rbp)
    100d:	0f 84 a0 03 00 00    	je     13b3 <main+0x931>
    1013:	83 85 7c ff ff ff 01 	addl   $0x1,-0x84(%rbp)
    101a:	83 7d 84 00          	cmpl   $0x0,-0x7c(%rbp)
    101e:	0f 84 8f 03 00 00    	je     13b3 <main+0x931>
    1024:	83 85 7c ff ff ff 01 	addl   $0x1,-0x84(%rbp)
    102b:	83 7d 84 00          	cmpl   $0x0,-0x7c(%rbp)
    102f:	0f 84 7e 03 00 00    	je     13b3 <main+0x931>
    1035:	83 85 7c ff ff ff 01 	addl   $0x1,-0x84(%rbp)
    103c:	83 7d 84 00          	cmpl   $0x0,-0x7c(%rbp)
    1040:	0f 84 6d 03 00 00    	je     13b3 <main+0x931>
    1046:	83 85 7c ff ff ff 01 	addl   $0x1,-0x84(%rbp)
    104d:	83 7d 84 00          	cmpl   $0x0,-0x7c(%rbp)
    1051:	0f 84 5c 03 00 00    	je     13b3 <main+0x931>
    1057:	83 85 7c ff ff ff 01 	addl   $0x1,-0x84(%rbp)
    105e:	83 7d 84 00          	cmpl   $0x0,-0x7c(%rbp)
    1062:	0f 84 4b 03 00 00    	je     13b3 <main+0x931>
    1068:	83 85 7c ff ff ff 01 	addl   $0x1,-0x84(%rbp)
    106f:	83 7d 84 00          	cmpl   $0x0,-0x7c(%rbp)
    1073:	0f 84 3a 03 00 00    	je     13b3 <main+0x931>
    1079:	83 85 7c ff ff ff 01 	addl   $0x1,-0x84(%rbp)
    1080:	83 7d 84 00          	cmpl   $0x0,-0x7c(%rbp)
    1084:	0f 84 29 03 00 00    	je     13b3 <main+0x931>
    108a:	83 85 7c ff ff ff 01 	addl   $0x1,-0x84(%rbp)
    1091:	83 7d 84 00          	cmpl   $0x0,-0x7c(%rbp)
    1095:	0f 84 18 03 00 00    	je     13b3 <main+0x931>
    109b:	83 85 7c ff ff ff 01 	addl   $0x1,-0x84(%rbp)
    10a2:	83 7d 84 00          	cmpl   $0x0,-0x7c(%rbp)
    10a6:	0f 84 07 03 00 00    	je     13b3 <main+0x931>
    10ac:	83 85 7c ff ff ff 01 	addl   $0x1,-0x84(%rbp)
    10b3:	83 7d 84 00          	cmpl   $0x0,-0x7c(%rbp)
    10b7:	0f 84 f6 02 00 00    	je     13b3 <main+0x931>
    10bd:	83 85 7c ff ff ff 01 	addl   $0x1,-0x84(%rbp)
    10c4:	83 7d 84 00          	cmpl   $0x0,-0x7c(%rbp)
    10c8:	0f 84 e5 02 00 00    	je     13b3 <main+0x931>
    10ce:	83 85 7c ff ff ff 01 	addl   $0x1,-0x84(%rbp)
    10d5:	83 7d 84 00          	cmpl   $0x0,-0x7c(%rbp)
    10d9:	0f 84 d4 02 00 00    	je     13b3 <main+0x931>
    10df:	83 85 7c ff ff ff 01 	addl   $0x1,-0x84(%rbp)
    10e6:	83 7d 84 00          	cmpl   $0x0,-0x7c(%rbp)
    10ea:	0f 84 c3 02 00 00    	je     13b3 <main+0x931>
    10f0:	83 85 7c ff ff ff 01 	addl   $0x1,-0x84(%rbp)
    10f7:	83 7d 84 00          	cmpl   $0x0,-0x7c(%rbp)
    10fb:	0f 84 b2 02 00 00    	je     13b3 <main+0x931>
    1101:	83 85 7c ff ff ff 01 	addl   $0x1,-0x84(%rbp)
    1108:	83 7d 84 00          	cmpl   $0x0,-0x7c(%rbp)
    110c:	0f 84 a1 02 00 00    	je     13b3 <main+0x931>
    1112:	83 85 7c ff ff ff 01 	addl   $0x1,-0x84(%rbp)
    1119:	83 7d 84 00          	cmpl   $0x0,-0x7c(%rbp)
    111d:	0f 84 90 02 00 00    	je     13b3 <main+0x931>
    1123:	83 85 7c ff ff ff 01 	addl   $0x1,-0x84(%rbp)
    112a:	83 7d 84 00          	cmpl   $0x0,-0x7c(%rbp)
    112e:	0f 84 7f 02 00 00    	je     13b3 <main+0x931>
    1134:	83 85 7c ff ff ff 01 	addl   $0x1,-0x84(%rbp)
    113b:	83 7d 84 00          	cmpl   $0x0,-0x7c(%rbp)
    113f:	0f 84 6e 02 00 00    	je     13b3 <main+0x931>
    1145:	83 85 7c ff ff ff 01 	addl   $0x1,-0x84(%rbp)
    114c:	83 7d 84 00          	cmpl   $0x0,-0x7c(%rbp)
    1150:	0f 84 5d 02 00 00    	je     13b3 <main+0x931>
    1156:	83 85 7c ff ff ff 01 	addl   $0x1,-0x84(%rbp)
    115d:	83 7d 84 00          	cmpl   $0x0,-0x7c(%rbp)
    1161:	0f 84 4c 02 00 00    	je     13b3 <main+0x931>
    1167:	83 85 7c ff ff ff 01 	addl   $0x1,-0x84(%rbp)
    116e:	83 7d 84 00          	cmpl   $0x0,-0x7c(%rbp)
    1172:	0f 84 3b 02 00 00    	je     13b3 <main+0x931>
    1178:	83 85 7c ff ff ff 01 	addl   $0x1,-0x84(%rbp)
    117f:	83 7d 84 00          	cmpl   $0x0,-0x7c(%rbp)
    1183:	0f 85 2a 02 00 00    	jne    13b3 <main+0x931>
    1189:	83 85 7c ff ff ff 01 	addl   $0x1,-0x84(%rbp)
    1190:	83 7d 84 00          	cmpl   $0x0,-0x7c(%rbp)
    1194:	0f 85 19 02 00 00    	jne    13b3 <main+0x931>
    119a:	83 85 7c ff ff ff 01 	addl   $0x1,-0x84(%rbp)
    11a1:	83 7d 84 00          	cmpl   $0x0,-0x7c(%rbp)
    11a5:	0f 85 08 02 00 00    	jne    13b3 <main+0x931>
    11ab:	83 85 7c ff ff ff 01 	addl   $0x1,-0x84(%rbp)
    11b2:	83 7d 84 00          	cmpl   $0x0,-0x7c(%rbp)
    11b6:	0f 85 f7 01 00 00    	jne    13b3 <main+0x931>
    11bc:	83 85 7c ff ff ff 01 	addl   $0x1,-0x84(%rbp)
    11c3:	83 7d 84 00          	cmpl   $0x0,-0x7c(%rbp)
    11c7:	0f 85 e6 01 00 00    	jne    13b3 <main+0x931>
    11cd:	83 85 7c ff ff ff 01 	addl   $0x1,-0x84(%rbp)
    11d4:	83 7d 84 00          	cmpl   $0x0,-0x7c(%rbp)
    11d8:	0f 85 d5 01 00 00    	jne    13b3 <main+0x931>
    11de:	83 85 7c ff ff ff 01 	addl   $0x1,-0x84(%rbp)
    11e5:	83 7d 84 00          	cmpl   $0x0,-0x7c(%rbp)
    11e9:	0f 85 c4 01 00 00    	jne    13b3 <main+0x931>
    11ef:	83 85 7c ff ff ff 01 	addl   $0x1,-0x84(%rbp)
    11f6:	83 7d 84 00          	cmpl   $0x0,-0x7c(%rbp)
    11fa:	0f 85 b3 01 00 00    	jne    13b3 <main+0x931>
    1200:	83 85 7c ff ff ff 01 	addl   $0x1,-0x84(%rbp)
    1207:	83 7d 84 00          	cmpl   $0x0,-0x7c(%rbp)
    120b:	0f 85 a2 01 00 00    	jne    13b3 <main+0x931>
    1211:	83 85 7c ff ff ff 01 	addl   $0x1,-0x84(%rbp)
    1218:	83 7d 84 00          	cmpl   $0x0,-0x7c(%rbp)
    121c:	0f 85 91 01 00 00    	jne    13b3 <main+0x931>
    1222:	83 85 7c ff ff ff 01 	addl   $0x1,-0x84(%rbp)
    1229:	83 7d 84 00          	cmpl   $0x0,-0x7c(%rbp)
    122d:	0f 85 80 01 00 00    	jne    13b3 <main+0x931>
    1233:	83 85 7c ff ff ff 01 	addl   $0x1,-0x84(%rbp)
    123a:	83 7d 84 00          	cmpl   $0x0,-0x7c(%rbp)
    123e:	0f 85 6f 01 00 00    	jne    13b3 <main+0x931>
    1244:	83 85 7c ff ff ff 01 	addl   $0x1,-0x84(%rbp)
    124b:	83 7d 84 00          	cmpl   $0x0,-0x7c(%rbp)
    124f:	0f 85 5e 01 00 00    	jne    13b3 <main+0x931>
    1255:	83 85 7c ff ff ff 01 	addl   $0x1,-0x84(%rbp)
    125c:	83 7d 84 00          	cmpl   $0x0,-0x7c(%rbp)
    1260:	0f 85 4d 01 00 00    	jne    13b3 <main+0x931>
    1266:	83 85 7c ff ff ff 01 	addl   $0x1,-0x84(%rbp)
    126d:	83 7d 84 00          	cmpl   $0x0,-0x7c(%rbp)
    1271:	0f 85 3c 01 00 00    	jne    13b3 <main+0x931>
    1277:	83 85 7c ff ff ff 01 	addl   $0x1,-0x84(%rbp)
    127e:	83 7d 84 00          	cmpl   $0x0,-0x7c(%rbp)
    1282:	0f 85 2b 01 00 00    	jne    13b3 <main+0x931>
    1288:	83 85 7c ff ff ff 01 	addl   $0x1,-0x84(%rbp)
    128f:	83 7d 84 00          	cmpl   $0x0,-0x7c(%rbp)
    1293:	0f 85 1a 01 00 00    	jne    13b3 <main+0x931>
    1299:	83 85 7c ff ff ff 01 	addl   $0x1,-0x84(%rbp)
    12a0:	83 7d 84 00          	cmpl   $0x0,-0x7c(%rbp)
    12a4:	0f 84 09 01 00 00    	je     13b3 <main+0x931>
    12aa:	83 85 7c ff ff ff 01 	addl   $0x1,-0x84(%rbp)
    12b1:	83 7d 84 00          	cmpl   $0x0,-0x7c(%rbp)
    12b5:	0f 84 f8 00 00 00    	je     13b3 <main+0x931>
    12bb:	83 85 7c ff ff ff 01 	addl   $0x1,-0x84(%rbp)
    12c2:	83 7d 84 00          	cmpl   $0x0,-0x7c(%rbp)
    12c6:	0f 84 e7 00 00 00    	je     13b3 <main+0x931>
    12cc:	83 85 7c ff ff ff 01 	addl   $0x1,-0x84(%rbp)
    12d3:	83 7d 84 00          	cmpl   $0x0,-0x7c(%rbp)
    12d7:	0f 84 d6 00 00 00    	je     13b3 <main+0x931>
    12dd:	83 85 7c ff ff ff 01 	addl   $0x1,-0x84(%rbp)
    12e4:	83 7d 84 00          	cmpl   $0x0,-0x7c(%rbp)
    12e8:	0f 84 c5 00 00 00    	je     13b3 <main+0x931>
    12ee:	83 85 7c ff ff ff 01 	addl   $0x1,-0x84(%rbp)
    12f5:	83 7d 84 00          	cmpl   $0x0,-0x7c(%rbp)
    12f9:	0f 84 b4 00 00 00    	je     13b3 <main+0x931>
    12ff:	83 85 7c ff ff ff 01 	addl   $0x1,-0x84(%rbp)
    1306:	83 7d 84 00          	cmpl   $0x0,-0x7c(%rbp)
    130a:	0f 84 a3 00 00 00    	je     13b3 <main+0x931>
    1310:	83 85 7c ff ff ff 01 	addl   $0x1,-0x84(%rbp)
    1317:	83 7d 84 00          	cmpl   $0x0,-0x7c(%rbp)
    131b:	0f 84 92 00 00 00    	je     13b3 <main+0x931>
    1321:	83 85 7c ff ff ff 01 	addl   $0x1,-0x84(%rbp)
    1328:	83 7d 84 00          	cmpl   $0x0,-0x7c(%rbp)
    132c:	0f 84 81 00 00 00    	je     13b3 <main+0x931>
    1332:	83 85 7c ff ff ff 01 	addl   $0x1,-0x84(%rbp)
    1339:	83 7d 84 00          	cmpl   $0x0,-0x7c(%rbp)
    133d:	74 74                	je     13b3 <main+0x931>
    133f:	83 85 7c ff ff ff 01 	addl   $0x1,-0x84(%rbp)
    1346:	83 7d 84 00          	cmpl   $0x0,-0x7c(%rbp)
    134a:	74 67                	je     13b3 <main+0x931>
    134c:	83 85 7c ff ff ff 01 	addl   $0x1,-0x84(%rbp)
    1353:	83 7d 84 00          	cmpl   $0x0,-0x7c(%rbp)
    1357:	74 5a                	je     13b3 <main+0x931>
    1359:	83 85 7c ff ff ff 01 	addl   $0x1,-0x84(%rbp)
    1360:	83 7d 84 00          	cmpl   $0x0,-0x7c(%rbp)
    1364:	74 4d                	je     13b3 <main+0x931>
    1366:	83 85 7c ff ff ff 01 	addl   $0x1,-0x84(%rbp)
    136d:	83 7d 84 00          	cmpl   $0x0,-0x7c(%rbp)
    1371:	74 40                	je     13b3 <main+0x931>
    1373:	83 85 7c ff ff ff 01 	addl   $0x1,-0x84(%rbp)
    137a:	83 7d 84 00          	cmpl   $0x0,-0x7c(%rbp)
    137e:	75 33                	jne    13b3 <main+0x931>
    1380:	c7 85 7c ff ff ff 9c 	movl   $0xffffff9c,-0x84(%rbp)
    1387:	ff ff ff 
    138a:	8b 85 7c ff ff ff    	mov    -0x84(%rbp),%eax
    1390:	89 c7                	mov    %eax,%edi
    1392:	e8 03 f5 ff ff       	callq  89a <funct>
    1397:	48 89 45 b0          	mov    %rax,-0x50(%rbp)
    139b:	48 8b 45 b0          	mov    -0x50(%rbp),%rax
    139f:	48 89 c6             	mov    %rax,%rsi
    13a2:	48 8d 3d 06 01 00 00 	lea    0x106(%rip),%rdi        # 14af <_IO_stdin_used+0xf>
    13a9:	b8 00 00 00 00       	mov    $0x0,%eax
    13ae:	e8 6d f3 ff ff       	callq  720 <printf@plt>
    13b3:	83 bd 7c ff ff ff 00 	cmpl   $0x0,-0x84(%rbp)
    13ba:	7e 13                	jle    13cf <main+0x94d>
    13bc:	48 8d 3d 05 01 00 00 	lea    0x105(%rip),%rdi        # 14c8 <_IO_stdin_used+0x28>
    13c3:	b8 00 00 00 00       	mov    $0x0,%eax
    13c8:	e8 53 f3 ff ff       	callq  720 <printf@plt>
    13cd:	eb 23                	jmp    13f2 <main+0x970>
    13cf:	83 bd 7c ff ff ff 00 	cmpl   $0x0,-0x84(%rbp)
    13d6:	75 1a                	jne    13f2 <main+0x970>
    13d8:	48 8d 3d 0d 01 00 00 	lea    0x10d(%rip),%rdi        # 14ec <_IO_stdin_used+0x4c>
    13df:	e8 0c f3 ff ff       	callq  6f0 <puts@plt>
    13e4:	eb 0c                	jmp    13f2 <main+0x970>
    13e6:	48 8d 3d 13 01 00 00 	lea    0x113(%rip),%rdi        # 1500 <_IO_stdin_used+0x60>
    13ed:	e8 fe f2 ff ff       	callq  6f0 <puts@plt>
    13f2:	b8 00 00 00 00       	mov    $0x0,%eax
    13f7:	48 89 dc             	mov    %rbx,%rsp
    13fa:	48 8b 5d c8          	mov    -0x38(%rbp),%rbx
    13fe:	64 48 33 1c 25 28 00 	xor    %fs:0x28,%rbx
    1405:	00 00 
    1407:	74 05                	je     140e <main+0x98c>
    1409:	e8 02 f3 ff ff       	callq  710 <__stack_chk_fail@plt>
    140e:	48 8d 65 d8          	lea    -0x28(%rbp),%rsp
    1412:	5b                   	pop    %rbx
    1413:	41 5c                	pop    %r12
    1415:	41 5d                	pop    %r13
    1417:	41 5e                	pop    %r14
    1419:	41 5f                	pop    %r15
    141b:	5d                   	pop    %rbp
    141c:	c3                   	retq   
    141d:	0f 1f 00             	nopl   (%rax)

0000000000001420 <__libc_csu_init>:
    1420:	41 57                	push   %r15
    1422:	41 56                	push   %r14
    1424:	49 89 d7             	mov    %rdx,%r15
    1427:	41 55                	push   %r13
    1429:	41 54                	push   %r12
    142b:	4c 8d 25 46 09 20 00 	lea    0x200946(%rip),%r12        # 201d78 <__frame_dummy_init_array_entry>
    1432:	55                   	push   %rbp
    1433:	48 8d 2d 46 09 20 00 	lea    0x200946(%rip),%rbp        # 201d80 <__do_global_dtors_aux_fini_array_entry>
    143a:	53                   	push   %rbx
    143b:	41 89 fd             	mov    %edi,%r13d
    143e:	49 89 f6             	mov    %rsi,%r14
    1441:	4c 29 e5             	sub    %r12,%rbp
    1444:	48 83 ec 08          	sub    $0x8,%rsp
    1448:	48 c1 fd 03          	sar    $0x3,%rbp
    144c:	e8 77 f2 ff ff       	callq  6c8 <_init>
    1451:	48 85 ed             	test   %rbp,%rbp
    1454:	74 20                	je     1476 <__libc_csu_init+0x56>
    1456:	31 db                	xor    %ebx,%ebx
    1458:	0f 1f 84 00 00 00 00 	nopl   0x0(%rax,%rax,1)
    145f:	00 
    1460:	4c 89 fa             	mov    %r15,%rdx
    1463:	4c 89 f6             	mov    %r14,%rsi
    1466:	44 89 ef             	mov    %r13d,%edi
    1469:	41 ff 14 dc          	callq  *(%r12,%rbx,8)
    146d:	48 83 c3 01          	add    $0x1,%rbx
    1471:	48 39 dd             	cmp    %rbx,%rbp
    1474:	75 ea                	jne    1460 <__libc_csu_init+0x40>
    1476:	48 83 c4 08          	add    $0x8,%rsp
    147a:	5b                   	pop    %rbx
    147b:	5d                   	pop    %rbp
    147c:	41 5c                	pop    %r12
    147e:	41 5d                	pop    %r13
    1480:	41 5e                	pop    %r14
    1482:	41 5f                	pop    %r15
    1484:	c3                   	retq   
    1485:	90                   	nop
    1486:	66 2e 0f 1f 84 00 00 	nopw   %cs:0x0(%rax,%rax,1)
    148d:	00 00 00 

0000000000001490 <__libc_csu_fini>:
    1490:	f3 c3                	repz retq 

Disassembly of section .fini:

0000000000001494 <_fini>:
    1494:	48 83 ec 08          	sub    $0x8,%rsp
    1498:	48 83 c4 08          	add    $0x8,%rsp
    149c:	c3                   	retq   
